target datalayout = "e-m:e-p270:32:32-p271:32:32-p272:64:64-i64:64-i128:128-f80:128-n8:16:32:64-S128"
target triple = "x86_64-pc-linux-gnu"

%struct.pack_info = type { ptr, i32, i32 }

@num_pack = internal global i32 0, align 4
@info = internal global ptr null, align 8
@.str.14 = private unnamed_addr constant [6 x i8] c"P %s\0A\00", align 1
@.str.15 = private unnamed_addr constant [2 x i8] c"\0A\00", align 1

; Function Attrs: nounwind uwtable
define internal i32 @write_pack_info_file(ptr noundef %0) #0 {
  %2 = alloca i32, align 4
  %3 = alloca ptr, align 8
  %4 = alloca i32, align 4
  %5 = alloca i32, align 4
  store ptr %0, ptr %3, align 8, !tbaa !30
  call void @llvm.lifetime.start.p0(i64 4, ptr %4) #9
  store i32 0, ptr %4, align 4, !tbaa !9
  br label %6

6:                                                ; preds = %24, %1
  %7 = load i32, ptr %4, align 4, !tbaa !9
  %8 = load i32, ptr @num_pack, align 4, !tbaa !9
  %9 = icmp slt i32 %7, %8
  br i1 %9, label %10, label %27

10:                                               ; preds = %6
  %11 = load ptr, ptr %3, align 8, !tbaa !30
  %12 = load ptr, ptr @info, align 8, !tbaa !41
  %13 = load i32, ptr %4, align 4, !tbaa !9
  %14 = sext i32 %13 to i64
  %15 = getelementptr inbounds ptr, ptr %12, i64 %14
  %16 = load ptr, ptr %15, align 8, !tbaa !43
  %17 = getelementptr inbounds nuw %struct.pack_info, ptr %16, i32 0, i32 0
  %18 = load ptr, ptr %17, align 8, !tbaa !45
  %19 = call ptr @pack_basename(ptr noundef %18)
  %20 = call i32 (ptr, ptr, ...) @uic_printf(ptr noundef %11, ptr noundef @.str.14, ptr noundef %19)
  %21 = icmp slt i32 %20, 0
  br i1 %21, label %22, label %23

22:                                               ; preds = %10
  store i32 -1, ptr %2, align 4
  store i32 1, ptr %5, align 4
  br label %33

23:                                               ; preds = %10
  br label %24

24:                                               ; preds = %23
  %25 = load i32, ptr %4, align 4, !tbaa !9
  %26 = add nsw i32 %25, 1
  store i32 %26, ptr %4, align 4, !tbaa !9
  br label %6, !llvm.loop !53

27:                                               ; preds = %6
  %28 = load ptr, ptr %3, align 8, !tbaa !30
  %29 = call i32 (ptr, ptr, ...) @uic_printf(ptr noundef %28, ptr noundef @.str.15)
  %30 = icmp slt i32 %29, 0
  br i1 %30, label %31, label %32

31:                                               ; preds = %27
  store i32 -1, ptr %2, align 4
  store i32 1, ptr %5, align 4
  br label %33

32:                                               ; preds = %27
  store i32 0, ptr %2, align 4
  store i32 1, ptr %5, align 4
  br label %33

33:                                               ; preds = %32, %31, %22
  call void @llvm.lifetime.end.p0(i64 4, ptr %4) #9
  %34 = load i32, ptr %2, align 4
  ret i32 %34
}