; Function Attrs: nounwind uwtable
define internal range(i32 -1, 1) i32 @write_pack_info_file(ptr noundef %0) #0 {
  %2 = load i32, ptr @num_pack, align 4, !tbaa !4
  %3 = icmp sgt i32 %2, 0
  br i1 %3, label %.lr.ph, label %._crit_edge

4:                                                ; preds = %.lr.ph
  %indvars.iv.next = add nuw nsw i64 %indvars.iv, 1
  %5 = load i32, ptr @num_pack, align 4, !tbaa !4
  %6 = sext i32 %5 to i64
  %7 = icmp slt i64 %indvars.iv.next, %6
  br i1 %7, label %.lr.ph, label %._crit_edge, !llvm.loop !42

.lr.ph:                                           ; preds = %1, %4
  %indvars.iv = phi i64 [ %indvars.iv.next, %4 ], [ 0, %1 ]
  %8 = load ptr, ptr @info, align 8, !tbaa !8
  %9 = getelementptr inbounds nuw ptr, ptr %8, i64 %indvars.iv
  %10 = load ptr, ptr %9, align 8, !tbaa !11
  %11 = load ptr, ptr %10, align 8, !tbaa !13
  %12 = tail call ptr @pack_basename(ptr noundef %11) #14
  %13 = tail call i32 (ptr, ptr, ...) @uic_printf(ptr noundef %0, ptr noundef nonnull @.str.14, ptr noundef %12)
  %14 = icmp slt i32 %13, 0
  br i1 %14, label %.loopexit, label %4

._crit_edge:                                      ; preds = %4, %1
  %15 = tail call i32 (ptr, ptr, ...) @uic_printf(ptr noundef %0, ptr noundef nonnull @.str.15)
  %.lobit = ashr i32 %15, 31
  br label %.loopexit

.loopexit:                                        ; preds = %.lr.ph, %._crit_edge
  %.05 = phi i32 [ %.lobit, %._crit_edge ], [ -1, %.lr.ph ]
  ret i32 %.05
}